; Function Attrs: mustprogress nofree nounwind willreturn memory(read, inaccessiblemem: none) uwtable
define zeroext i1 @H5Z_xform_noop(ptr noundef readonly captures(address_is_null) %0) local_unnamed_addr #8 {
  %2 = load i8, ptr @H5Z_init_g, align 1, !tbaa !3, !range !7, !noundef !8
  %3 = trunc nuw i8 %2 to i1
  %4 = load i8, ptr @H5_libterm_g, align 1, !range !7
  %5 = trunc nuw i8 %4 to i1
  %6 = xor i1 %5, true
  %7 = select i1 %3, i1 true, i1 %6
  %8 = icmp ne ptr %0, null
  %or.cond = and i1 %8, %7
  br i1 %or.cond, label %9, label %19, !prof !209

9:                                                ; preds = %1
  %10 = load ptr, ptr %0, align 8, !tbaa !201
  %11 = tail call i64 @strlen(ptr noundef nonnull dereferenceable(1) %10) #15
  %12 = icmp eq i64 %11, 1
  br i1 %12, label %13, label %19

13:                                               ; preds = %9
  %14 = getelementptr inbounds nuw i8, ptr %0, i64 16
  %15 = load ptr, ptr %14, align 8, !tbaa !32
  %.not = icmp eq ptr %15, null
  br i1 %.not, label %19, label %16

16:                                               ; preds = %13
  %17 = load i32, ptr %15, align 8, !tbaa !33
  %18 = icmp eq i32 %17, 1
  br label %19

19:                                               ; preds = %16, %13, %9, %1
  %.0 = phi i1 [ false, %13 ], [ false, %9 ], [ true, %1 ], [ %18, %16 ]
  ret i1 %.0
}